;--------------------------------------------------------
; File Created by SDCC : free open source ISO C Compiler
; Version 4.5.0 #15242 (Mac OS X ppc)
;--------------------------------------------------------
	.module isr
	
	.optsdcc -mmcs51 --model-small
;--------------------------------------------------------
; Public variables in this module
;--------------------------------------------------------
	.globl _StringDscr
	.globl _isr
	.globl _hid_report
	.globl _EIPX6
	.globl _EIPX5
	.globl _EIPX4
	.globl _PI2C
	.globl _PUSB
	.globl _EIEX6
	.globl _EIEX5
	.globl _EIEX4
	.globl _EI2C
	.globl _EUSB
	.globl _SMOD1
	.globl _ERESI
	.globl _RESI
	.globl _INT6
	.globl _CY
	.globl _AC
	.globl _F0
	.globl _RS1
	.globl _RS0
	.globl _OV
	.globl _FL
	.globl _P
	.globl _TF2
	.globl _EXF2
	.globl _RCLK
	.globl _TCLK
	.globl _EXEN2
	.globl _TR2
	.globl _C_T2
	.globl _CP_RL2
	.globl _SM01
	.globl _SM11
	.globl _SM21
	.globl _REN1
	.globl _TB81
	.globl _RB81
	.globl _TI1
	.globl _RI1
	.globl _PS1
	.globl _PT2
	.globl _PS0
	.globl _PT1
	.globl _PX1
	.globl _PT0
	.globl _PX0
	.globl _PD7
	.globl _PD6
	.globl _PD5
	.globl _PD4
	.globl _PD3
	.globl _PD2
	.globl _PD1
	.globl _PD0
	.globl _EA
	.globl _ES1
	.globl _ET2
	.globl _ES0
	.globl _ET1
	.globl _EX1
	.globl _ET0
	.globl _EX0
	.globl _PC7
	.globl _PC6
	.globl _PC5
	.globl _PC4
	.globl _PC3
	.globl _PC2
	.globl _PC1
	.globl _PC0
	.globl _SM0
	.globl _SM1
	.globl _SM2
	.globl _REN
	.globl _TB8
	.globl _RB8
	.globl _TI
	.globl _RI
	.globl _PB7
	.globl _PB6
	.globl _PB5
	.globl _PB4
	.globl _PB3
	.globl _PB2
	.globl _PB1
	.globl _PB0
	.globl _TF1
	.globl _TR1
	.globl _TF0
	.globl _TR0
	.globl _IE1
	.globl _IT1
	.globl _IE0
	.globl _IT0
	.globl _PA7
	.globl _PA6
	.globl _PA5
	.globl _PA4
	.globl _PA3
	.globl _PA2
	.globl _PA1
	.globl _PA0
	.globl _EIP
	.globl _B
	.globl _EIE
	.globl _ACC
	.globl _EICON
	.globl _PSW
	.globl _TH2
	.globl _TL2
	.globl _RCAP2H
	.globl _RCAP2L
	.globl _T2CON
	.globl _SBUF1
	.globl _SCON1
	.globl _GPIFSGLDATLNOX
	.globl _GPIFSGLDATLX
	.globl _GPIFSGLDATH
	.globl _GPIFTRIG
	.globl _EP01STAT
	.globl _IP
	.globl _OEE
	.globl _OED
	.globl _OEC
	.globl _OEB
	.globl _OEA
	.globl _IOE
	.globl _IOD
	.globl _AUTOPTRSETUP
	.globl _EP68FIFOFLGS
	.globl _EP24FIFOFLGS
	.globl _EP2468STAT
	.globl _IE
	.globl _INT4CLR
	.globl _INT2CLR
	.globl _IOC
	.globl _AUTOPTRL2
	.globl _AUTOPTRH2
	.globl _AUTOPTRL1
	.globl _AUTOPTRH1
	.globl _SBUF0
	.globl _SCON0
	.globl _MPAGE
	.globl _EXIF
	.globl _IOB
	.globl _CKCON
	.globl _TH1
	.globl _TH0
	.globl _TL1
	.globl _TL0
	.globl _TMOD
	.globl _TCON
	.globl _PCON
	.globl _DPS
	.globl _DPH1
	.globl _DPL1
	.globl _DPH
	.globl _DPL
	.globl _SP
	.globl _IOA
	.globl _EP8FIFOBUF
	.globl _EP6FIFOBUF
	.globl _EP4FIFOBUF
	.globl _EP2FIFOBUF
	.globl _EP1INBUF
	.globl _EP1OUTBUF
	.globl _EP0BUF
	.globl _GPIFABORT
	.globl _GPIFREADYSTAT
	.globl _GPIFREADYCFG
	.globl _XGPIFSGLDATLNOX
	.globl _XGPIFSGLDATLX
	.globl _XGPIFSGLDATH
	.globl _EP8GPIFTRIG
	.globl _EP8GPIFPFSTOP
	.globl _EP8GPIFFLGSEL
	.globl _EP6GPIFTRIG
	.globl _EP6GPIFPFSTOP
	.globl _EP6GPIFFLGSEL
	.globl _EP4GPIFTRIG
	.globl _EP4GPIFPFSTOP
	.globl _EP4GPIFFLGSEL
	.globl _EP2GPIFTRIG
	.globl _EP2GPIFPFSTOP
	.globl _EP2GPIFFLGSEL
	.globl _GPIFTCB0
	.globl _GPIFTCB1
	.globl _GPIFTCB2
	.globl _GPIFTCB3
	.globl _FLOWSTBHPERIOD
	.globl _FLOWSTBEDGE
	.globl _FLOWSTB
	.globl _FLOWHOLDOFF
	.globl _FLOWEQ1CTL
	.globl _FLOWEQ0CTL
	.globl _FLOWLOGIC
	.globl _FLOWSTATE
	.globl _GPIFADRL
	.globl _GPIFADRH
	.globl _GPIFCTLCFG
	.globl _GPIFIDLECTL
	.globl _GPIFIDLECS
	.globl _GPIFWFSELECT
	.globl _SETUPDAT
	.globl _SUDPTRCTL
	.globl _SUDPTRL
	.globl _SUDPTRH
	.globl _EP8FIFOBCL
	.globl _EP8FIFOBCH
	.globl _EP6FIFOBCL
	.globl _EP6FIFOBCH
	.globl _EP4FIFOBCL
	.globl _EP4FIFOBCH
	.globl _EP2FIFOBCL
	.globl _EP2FIFOBCH
	.globl _EP8FIFOFLGS
	.globl _EP6FIFOFLGS
	.globl _EP4FIFOFLGS
	.globl _EP2FIFOFLGS
	.globl _EP8CS
	.globl _EP6CS
	.globl _EP4CS
	.globl _EP2CS
	.globl _EP1INCS
	.globl _EP1OUTCS
	.globl _EP0CS
	.globl _EP8BCL
	.globl _EP8BCH
	.globl _EP6BCL
	.globl _EP6BCH
	.globl _EP4BCL
	.globl _EP4BCH
	.globl _EP2BCL
	.globl _EP2BCH
	.globl _EP1INBC
	.globl _EP1OUTBC
	.globl _EP0BCL
	.globl _EP0BCH
	.globl _FNADDR
	.globl _MICROFRAME
	.globl _USBFRAMEL
	.globl _USBFRAMEH
	.globl _TOGCTL
	.globl _WAKEUPCS
	.globl _SUSPEND
	.globl _USBCS
	.globl _UDMACRCQUAL
	.globl _UDMACRCL
	.globl _UDMACRCH
	.globl _XAUTODAT2
	.globl _XAUTODAT1
	.globl _I2CTL
	.globl _I2DAT
	.globl _I2CS
	.globl _PORTECFG
	.globl _PORTCCFG
	.globl _PORTACFG
	.globl _INTSETUP
	.globl _INT4IVEC
	.globl _INT2IVEC
	.globl _CLRERRCNT
	.globl _ERRCNTLIM
	.globl _USBERRIRQ
	.globl _USBERRIE
	.globl _GPIFIRQ
	.globl _GPIFIE
	.globl _EPIRQ
	.globl _EPIE
	.globl _USBIRQ
	.globl _USBIE
	.globl _NAKIRQ
	.globl _NAKIE
	.globl _IBNIRQ
	.globl _IBNIE
	.globl _EP8FIFOIRQ
	.globl _EP8FIFOIE
	.globl _EP6FIFOIRQ
	.globl _EP6FIFOIE
	.globl _EP4FIFOIRQ
	.globl _EP4FIFOIE
	.globl _EP2FIFOIRQ
	.globl _EP2FIFOIE
	.globl _OUTPKTEND
	.globl _INPKTEND
	.globl _EP8ISOINPKTS
	.globl _EP6ISOINPKTS
	.globl _EP4ISOINPKTS
	.globl _EP2ISOINPKTS
	.globl _EP8FIFOPFL
	.globl _EP8FIFOPFH
	.globl _EP6FIFOPFL
	.globl _EP6FIFOPFH
	.globl _EP4FIFOPFL
	.globl _EP4FIFOPFH
	.globl _EP2FIFOPFL
	.globl _EP2FIFOPFH
	.globl _ECC2B2
	.globl _ECC2B1
	.globl _ECC2B0
	.globl _ECC1B2
	.globl _ECC1B1
	.globl _ECC1B0
	.globl _ECCRESET
	.globl _ECCCFG
	.globl _EP8AUTOINLENL
	.globl _EP8AUTOINLENH
	.globl _EP6AUTOINLENL
	.globl _EP6AUTOINLENH
	.globl _EP4AUTOINLENL
	.globl _EP4AUTOINLENH
	.globl _EP2AUTOINLENL
	.globl _EP2AUTOINLENH
	.globl _EP8FIFOCFG
	.globl _EP6FIFOCFG
	.globl _EP4FIFOCFG
	.globl _EP2FIFOCFG
	.globl _EP8CFG
	.globl _EP6CFG
	.globl _EP4CFG
	.globl _EP2CFG
	.globl _EP1INCFG
	.globl _EP1OUTCFG
	.globl _GPIFHOLDAMOUNT
	.globl _REVCTL
	.globl _REVID
	.globl _FIFOPINPOLAR
	.globl _UART230
	.globl _BPADDRL
	.globl _BPADDRH
	.globl _BREAKPT
	.globl _FIFORESET
	.globl _PINFLAGSCD
	.globl _PINFLAGSAB
	.globl _IFCONFIG
	.globl _CPUCS
	.globl _WAVEDATA
;--------------------------------------------------------
; special function registers
;--------------------------------------------------------
	.area RSEG    (ABS,DATA)
	.org 0x0000
_IOA	=	0x0080
_SP	=	0x0081
_DPL	=	0x0082
_DPH	=	0x0083
_DPL1	=	0x0084
_DPH1	=	0x0085
_DPS	=	0x0086
_PCON	=	0x0087
_TCON	=	0x0088
_TMOD	=	0x0089
_TL0	=	0x008a
_TL1	=	0x008b
_TH0	=	0x008c
_TH1	=	0x008d
_CKCON	=	0x008e
_IOB	=	0x0090
_EXIF	=	0x0091
_MPAGE	=	0x0092
_SCON0	=	0x0098
_SBUF0	=	0x0099
_AUTOPTRH1	=	0x009a
_AUTOPTRL1	=	0x009b
_AUTOPTRH2	=	0x009d
_AUTOPTRL2	=	0x009e
_IOC	=	0x00a0
_INT2CLR	=	0x00a1
_INT4CLR	=	0x00a2
_IE	=	0x00a8
_EP2468STAT	=	0x00aa
_EP24FIFOFLGS	=	0x00ab
_EP68FIFOFLGS	=	0x00ac
_AUTOPTRSETUP	=	0x00af
_IOD	=	0x00b0
_IOE	=	0x00b1
_OEA	=	0x00b2
_OEB	=	0x00b3
_OEC	=	0x00b4
_OED	=	0x00b5
_OEE	=	0x00b6
_IP	=	0x00b8
_EP01STAT	=	0x00ba
_GPIFTRIG	=	0x00bb
_GPIFSGLDATH	=	0x00bd
_GPIFSGLDATLX	=	0x00be
_GPIFSGLDATLNOX	=	0x00bf
_SCON1	=	0x00c0
_SBUF1	=	0x00c1
_T2CON	=	0x00c8
_RCAP2L	=	0x00ca
_RCAP2H	=	0x00cb
_TL2	=	0x00cc
_TH2	=	0x00cd
_PSW	=	0x00d0
_EICON	=	0x00d8
_ACC	=	0x00e0
_EIE	=	0x00e8
_B	=	0x00f0
_EIP	=	0x00f8
;--------------------------------------------------------
; special function bits
;--------------------------------------------------------
	.area RSEG    (ABS,DATA)
	.org 0x0000
_PA0	=	0x0080
_PA1	=	0x0081
_PA2	=	0x0082
_PA3	=	0x0083
_PA4	=	0x0084
_PA5	=	0x0085
_PA6	=	0x0086
_PA7	=	0x0087
_IT0	=	0x0088
_IE0	=	0x0089
_IT1	=	0x008a
_IE1	=	0x008b
_TR0	=	0x008c
_TF0	=	0x008d
_TR1	=	0x008e
_TF1	=	0x008f
_PB0	=	0x0090
_PB1	=	0x0091
_PB2	=	0x0092
_PB3	=	0x0093
_PB4	=	0x0094
_PB5	=	0x0095
_PB6	=	0x0096
_PB7	=	0x0097
_RI	=	0x0098
_TI	=	0x0099
_RB8	=	0x009a
_TB8	=	0x009b
_REN	=	0x009c
_SM2	=	0x009d
_SM1	=	0x009e
_SM0	=	0x009f
_PC0	=	0x00a0
_PC1	=	0x00a1
_PC2	=	0x00a2
_PC3	=	0x00a3
_PC4	=	0x00a4
_PC5	=	0x00a5
_PC6	=	0x00a6
_PC7	=	0x00a7
_EX0	=	0x00a8
_ET0	=	0x00a9
_EX1	=	0x00aa
_ET1	=	0x00ab
_ES0	=	0x00ac
_ET2	=	0x00ad
_ES1	=	0x00ae
_EA	=	0x00af
_PD0	=	0x00b0
_PD1	=	0x00b1
_PD2	=	0x00b2
_PD3	=	0x00b3
_PD4	=	0x00b4
_PD5	=	0x00b5
_PD6	=	0x00b6
_PD7	=	0x00b7
_PX0	=	0x00b8
_PT0	=	0x00b9
_PX1	=	0x00ba
_PT1	=	0x00bb
_PS0	=	0x00bc
_PT2	=	0x00bd
_PS1	=	0x00be
_RI1	=	0x00c0
_TI1	=	0x00c1
_RB81	=	0x00c2
_TB81	=	0x00c3
_REN1	=	0x00c4
_SM21	=	0x00c5
_SM11	=	0x00c6
_SM01	=	0x00c7
_CP_RL2	=	0x00c8
_C_T2	=	0x00c9
_TR2	=	0x00ca
_EXEN2	=	0x00cb
_TCLK	=	0x00cc
_RCLK	=	0x00cd
_EXF2	=	0x00ce
_TF2	=	0x00cf
_P	=	0x00d0
_FL	=	0x00d1
_OV	=	0x00d2
_RS0	=	0x00d3
_RS1	=	0x00d4
_F0	=	0x00d5
_AC	=	0x00d6
_CY	=	0x00d7
_INT6	=	0x00db
_RESI	=	0x00dc
_ERESI	=	0x00dd
_SMOD1	=	0x00df
_EUSB	=	0x00e8
_EI2C	=	0x00e9
_EIEX4	=	0x00ea
_EIEX5	=	0x00eb
_EIEX6	=	0x00ec
_PUSB	=	0x00f8
_PI2C	=	0x00f9
_EIPX4	=	0x00fa
_EIPX5	=	0x00fb
_EIPX6	=	0x00fc
;--------------------------------------------------------
; overlayable register banks
;--------------------------------------------------------
	.area REG_BANK_0	(REL,OVR,DATA)
	.ds 8
;--------------------------------------------------------
; overlayable bit register bank
;--------------------------------------------------------
	.area BIT_BANK	(REL,OVR,DATA)
bits:
	.ds 1
	b0 = bits[0]
	b1 = bits[1]
	b2 = bits[2]
	b3 = bits[3]
	b4 = bits[4]
	b5 = bits[5]
	b6 = bits[6]
	b7 = bits[7]
;--------------------------------------------------------
; internal ram data
;--------------------------------------------------------
	.area DSEG    (DATA)
_isr_config_30000_18:
	.ds 1
;--------------------------------------------------------
; overlayable items in internal ram
;--------------------------------------------------------
;--------------------------------------------------------
; indirectly addressable internal ram data
;--------------------------------------------------------
	.area ISEG    (DATA)
;--------------------------------------------------------
; absolute internal ram data
;--------------------------------------------------------
	.area IABS    (ABS,DATA)
	.area IABS    (ABS,DATA)
;--------------------------------------------------------
; bit data
;--------------------------------------------------------
	.area BSEG    (BIT)
;--------------------------------------------------------
; paged external ram data
;--------------------------------------------------------
	.area PSEG    (PAG,XDATA)
;--------------------------------------------------------
; uninitialized external ram data
;--------------------------------------------------------
	.area XSEG    (XDATA)
_WAVEDATA	=	0xe400
_CPUCS	=	0xe600
_IFCONFIG	=	0xe601
_PINFLAGSAB	=	0xe602
_PINFLAGSCD	=	0xe603
_FIFORESET	=	0xe604
_BREAKPT	=	0xe605
_BPADDRH	=	0xe606
_BPADDRL	=	0xe607
_UART230	=	0xe608
_FIFOPINPOLAR	=	0xe609
_REVID	=	0xe60a
_REVCTL	=	0xe60b
_GPIFHOLDAMOUNT	=	0xe60c
_EP1OUTCFG	=	0xe610
_EP1INCFG	=	0xe611
_EP2CFG	=	0xe612
_EP4CFG	=	0xe613
_EP6CFG	=	0xe614
_EP8CFG	=	0xe615
_EP2FIFOCFG	=	0xe618
_EP4FIFOCFG	=	0xe619
_EP6FIFOCFG	=	0xe61a
_EP8FIFOCFG	=	0xe61b
_EP2AUTOINLENH	=	0xe620
_EP2AUTOINLENL	=	0xe621
_EP4AUTOINLENH	=	0xe622
_EP4AUTOINLENL	=	0xe623
_EP6AUTOINLENH	=	0xe624
_EP6AUTOINLENL	=	0xe625
_EP8AUTOINLENH	=	0xe626
_EP8AUTOINLENL	=	0xe627
_ECCCFG	=	0xe628
_ECCRESET	=	0xe629
_ECC1B0	=	0xe62a
_ECC1B1	=	0xe62b
_ECC1B2	=	0xe62c
_ECC2B0	=	0xe62d
_ECC2B1	=	0xe62e
_ECC2B2	=	0xe62f
_EP2FIFOPFH	=	0xe630
_EP2FIFOPFL	=	0xe631
_EP4FIFOPFH	=	0xe632
_EP4FIFOPFL	=	0xe633
_EP6FIFOPFH	=	0xe634
_EP6FIFOPFL	=	0xe635
_EP8FIFOPFH	=	0xe636
_EP8FIFOPFL	=	0xe637
_EP2ISOINPKTS	=	0xe640
_EP4ISOINPKTS	=	0xe641
_EP6ISOINPKTS	=	0xe642
_EP8ISOINPKTS	=	0xe643
_INPKTEND	=	0xe648
_OUTPKTEND	=	0xe649
_EP2FIFOIE	=	0xe650
_EP2FIFOIRQ	=	0xe651
_EP4FIFOIE	=	0xe652
_EP4FIFOIRQ	=	0xe653
_EP6FIFOIE	=	0xe654
_EP6FIFOIRQ	=	0xe655
_EP8FIFOIE	=	0xe656
_EP8FIFOIRQ	=	0xe657
_IBNIE	=	0xe658
_IBNIRQ	=	0xe659
_NAKIE	=	0xe65a
_NAKIRQ	=	0xe65b
_USBIE	=	0xe65c
_USBIRQ	=	0xe65d
_EPIE	=	0xe65e
_EPIRQ	=	0xe65f
_GPIFIE	=	0xe660
_GPIFIRQ	=	0xe661
_USBERRIE	=	0xe662
_USBERRIRQ	=	0xe663
_ERRCNTLIM	=	0xe664
_CLRERRCNT	=	0xe665
_INT2IVEC	=	0xe666
_INT4IVEC	=	0xe667
_INTSETUP	=	0xe668
_PORTACFG	=	0xe670
_PORTCCFG	=	0xe671
_PORTECFG	=	0xe672
_I2CS	=	0xe678
_I2DAT	=	0xe679
_I2CTL	=	0xe67a
_XAUTODAT1	=	0xe67b
_XAUTODAT2	=	0xe67c
_UDMACRCH	=	0xe67d
_UDMACRCL	=	0xe67e
_UDMACRCQUAL	=	0xe67f
_USBCS	=	0xe680
_SUSPEND	=	0xe681
_WAKEUPCS	=	0xe682
_TOGCTL	=	0xe683
_USBFRAMEH	=	0xe684
_USBFRAMEL	=	0xe685
_MICROFRAME	=	0xe686
_FNADDR	=	0xe687
_EP0BCH	=	0xe68a
_EP0BCL	=	0xe68b
_EP1OUTBC	=	0xe68d
_EP1INBC	=	0xe68f
_EP2BCH	=	0xe690
_EP2BCL	=	0xe691
_EP4BCH	=	0xe694
_EP4BCL	=	0xe695
_EP6BCH	=	0xe698
_EP6BCL	=	0xe699
_EP8BCH	=	0xe69c
_EP8BCL	=	0xe69d
_EP0CS	=	0xe6a0
_EP1OUTCS	=	0xe6a1
_EP1INCS	=	0xe6a2
_EP2CS	=	0xe6a3
_EP4CS	=	0xe6a4
_EP6CS	=	0xe6a5
_EP8CS	=	0xe6a6
_EP2FIFOFLGS	=	0xe6a7
_EP4FIFOFLGS	=	0xe6a8
_EP6FIFOFLGS	=	0xe6a9
_EP8FIFOFLGS	=	0xe6aa
_EP2FIFOBCH	=	0xe6ab
_EP2FIFOBCL	=	0xe6ac
_EP4FIFOBCH	=	0xe6ad
_EP4FIFOBCL	=	0xe6ae
_EP6FIFOBCH	=	0xe6af
_EP6FIFOBCL	=	0xe6b0
_EP8FIFOBCH	=	0xe6b1
_EP8FIFOBCL	=	0xe6b2
_SUDPTRH	=	0xe6b3
_SUDPTRL	=	0xe6b4
_SUDPTRCTL	=	0xe6b5
_SETUPDAT	=	0xe6b8
_GPIFWFSELECT	=	0xe6c0
_GPIFIDLECS	=	0xe6c1
_GPIFIDLECTL	=	0xe6c2
_GPIFCTLCFG	=	0xe6c3
_GPIFADRH	=	0xe6c4
_GPIFADRL	=	0xe6c5
_FLOWSTATE	=	0xe6c6
_FLOWLOGIC	=	0xe6c7
_FLOWEQ0CTL	=	0xe6c8
_FLOWEQ1CTL	=	0xe6c9
_FLOWHOLDOFF	=	0xe6ca
_FLOWSTB	=	0xe6cb
_FLOWSTBEDGE	=	0xe6cc
_FLOWSTBHPERIOD	=	0xe6cd
_GPIFTCB3	=	0xe6ce
_GPIFTCB2	=	0xe6cf
_GPIFTCB1	=	0xe6d0
_GPIFTCB0	=	0xe6d1
_EP2GPIFFLGSEL	=	0xe6d2
_EP2GPIFPFSTOP	=	0xe6d3
_EP2GPIFTRIG	=	0xe6d4
_EP4GPIFFLGSEL	=	0xe6da
_EP4GPIFPFSTOP	=	0xe6db
_EP4GPIFTRIG	=	0xe6dc
_EP6GPIFFLGSEL	=	0xe6e2
_EP6GPIFPFSTOP	=	0xe6e3
_EP6GPIFTRIG	=	0xe6e4
_EP8GPIFFLGSEL	=	0xe6ea
_EP8GPIFPFSTOP	=	0xe6eb
_EP8GPIFTRIG	=	0xe6ec
_XGPIFSGLDATH	=	0xe6f0
_XGPIFSGLDATLX	=	0xe6f1
_XGPIFSGLDATLNOX	=	0xe6f2
_GPIFREADYCFG	=	0xe6f3
_GPIFREADYSTAT	=	0xe6f4
_GPIFABORT	=	0xe6f5
_EP0BUF	=	0xe740
_EP1OUTBUF	=	0xe780
_EP1INBUF	=	0xe7c0
_EP2FIFOBUF	=	0xf000
_EP4FIFOBUF	=	0xf400
_EP6FIFOBUF	=	0xf800
_EP8FIFOBUF	=	0xfc00
;--------------------------------------------------------
; absolute external ram data
;--------------------------------------------------------
	.area XABS    (ABS,XDATA)
;--------------------------------------------------------
; initialized external ram data
;--------------------------------------------------------
	.area XISEG   (XDATA)
	.area HOME    (CODE)
	.area GSINIT0 (CODE)
	.area GSINIT1 (CODE)
	.area GSINIT2 (CODE)
	.area GSINIT3 (CODE)
	.area GSINIT4 (CODE)
	.area GSINIT5 (CODE)
	.area GSINIT  (CODE)
	.area GSFINAL (CODE)
	.area CSEG    (CODE)
;--------------------------------------------------------
; global & static initialisations
;--------------------------------------------------------
	.area HOME    (CODE)
	.area GSINIT  (CODE)
	.area GSFINAL (CODE)
	.area GSINIT  (CODE)
;--------------------------------------------------------
; Home
;--------------------------------------------------------
	.area HOME    (CODE)
	.area HOME    (CODE)
;--------------------------------------------------------
; code
;--------------------------------------------------------
	.area CSEG    (CODE)
;------------------------------------------------------------
;Allocation info for local variables in function 'hid_report'
;------------------------------------------------------------
;size          Allocated to stack - _bp -5 +3 
;addr          Allocated to stack - _bp +1 +3 
;n             Allocated to registers r4 
;j             Allocated to stack - _bp +4 +1 
;------------------------------------------------------------
;	isr.c:16: void hid_report(const BYTE *addr, const BYTE *size) {
;	-----------------------------------------
;	 function hid_report
;	-----------------------------------------
_hid_report:
	ar7 = 0x07
	ar6 = 0x06
	ar5 = 0x05
	ar4 = 0x04
	ar3 = 0x03
	ar2 = 0x02
	ar1 = 0x01
	ar0 = 0x00
	push	_bp
	mov	_bp,sp
	push	dpl
	push	dph
	push	b
	inc	sp
;	isr.c:17: EP0BCH = 0;
	mov	dptr,#_EP0BCH
	clr	a
	movx	@dptr,a
;	isr.c:18: BYTE n = 0;
	mov	r4,a
;	isr.c:19: for (BYTE j = 0; j < size[0]; j++) {
	mov	a,_bp
	add	a,#0xfb
	mov	r0,a
	mov	ar2,@r0
	inc	r0
	mov	ar3,@r0
	inc	r0
	mov	ar7,@r0
	mov	a,_bp
	add	a,#0x04
	mov	r0,a
	mov	@r0,#0x00
00108$:
	mov	dpl,r2
	mov	dph,r3
	mov	b,r7
	lcall	__gptrget
	mov	r5,a
	mov	a,_bp
	add	a,#0x04
	mov	r0,a
	clr	c
	mov	a,@r0
	subb	a,r5
	jnc	00106$
;	isr.c:20: if (n == 64) { // MaxPacketSize
	cjne	r4,#0x40,00105$
;	isr.c:21: EP0BCL = n;
	mov	dptr,#_EP0BCL
	mov	a,r4
	movx	@dptr,a
;	isr.c:22: n = 0;
	mov	r4,#0x00
;	isr.c:23: while (EP0CS & b1); // BUSY
00101$:
	mov	dptr,#_EP0CS
	movx	a,@dptr
	jb	acc.1,00101$
00105$:
;	isr.c:25: EP0BUF[n++] = addr[j];
	push	ar2
	push	ar3
	push	ar7
	mov	ar5,r4
	inc	r4
	mov	a,r5
	add	a, #_EP0BUF
	mov	r5,a
	clr	a
	addc	a, #(_EP0BUF >> 8)
	mov	r7,a
	mov	r0,_bp
	inc	r0
	mov	a,_bp
	add	a,#0x04
	mov	r1,a
	mov	a,@r1
	add	a, @r0
	mov	r2,a
	clr	a
	inc	r0
	addc	a, @r0
	mov	r3,a
	inc	r0
	mov	ar6,@r0
	mov	dpl,r2
	mov	dph,r3
	mov	b,r6
	lcall	__gptrget
	mov	dpl,r5
	mov	dph,r7
	movx	@dptr,a
;	isr.c:19: for (BYTE j = 0; j < size[0]; j++) {
	mov	a,_bp
	add	a,#0x04
	mov	r0,a
	inc	@r0
	pop	ar7
	pop	ar3
	pop	ar2
	sjmp	00108$
00106$:
;	isr.c:27: EP0BCL = n;
	mov	dptr,#_EP0BCL
	mov	a,r4
	movx	@dptr,a
;	isr.c:28: }
	mov	sp,_bp
	pop	_bp
	ret
;------------------------------------------------------------
;Allocation info for local variables in function 'isr'
;------------------------------------------------------------
;config        Allocated with name '_isr_config_30000_18'
;------------------------------------------------------------
;	isr.c:31: void isr(void) __interrupt(8) {
;	-----------------------------------------
;	 function isr
;	-----------------------------------------
_isr:
	push	bits
	push	acc
	push	b
	push	dpl
	push	dph
	push	(0+7)
	push	(0+6)
	push	(0+5)
	push	(0+4)
	push	(0+3)
	push	(0+2)
	push	(0+1)
	push	(0+0)
	push	psw
	mov	psw,#0x00
;	isr.c:32: if (USBIRQ & b4) { // URES
	mov	dptr,#_USBIRQ
	movx	a,@dptr
	jnb	acc.4,00102$
;	isr.c:33: USBIRQ = b4; // clear Usb RESet interrupt request
	mov	dptr,#_USBIRQ
	mov	a,#0x10
	movx	@dptr,a
00102$:
;	isr.c:35: if (USBIRQ & b0) { // SETUP
	mov	dptr,#_USBIRQ
	movx	a,@dptr
	jb	acc.0,00217$
	ljmp	00130$
00217$:
;	isr.c:36: if (SETUPDAT[1] == 6) { // GET_DESCRIPTOR
	mov	dptr,#(_SETUPDAT + 0x0001)
	movx	a,@dptr
	mov	r7,a
	cjne	r7,#0x06,00218$
	sjmp	00219$
00218$:
	ljmp	00126$
00219$:
;	isr.c:37: switch (SETUPDAT[3]) {
	mov	dptr,#(_SETUPDAT + 0x0003)
	movx	a,@dptr
	mov	r7,a
	cjne	r7,#0x01,00220$
	sjmp	00103$
00220$:
	cjne	r7,#0x02,00221$
	sjmp	00104$
00221$:
	cjne	r7,#0x03,00222$
	sjmp	00105$
00222$:
	cjne	r7,#0x06,00223$
	ljmp	00117$
00223$:
	cjne	r7,#0x07,00224$
	ljmp	00117$
00224$:
	cjne	r7,#0x22,00225$
	sjmp	00108$
00225$:
	ljmp	00117$
;	isr.c:38: case 0x01: // DEVICE
00103$:
;	isr.c:39: SUDPTRH = MSB(DeviceDscr);
	mov	r6,#_DeviceDscr
	mov	r7,#(_DeviceDscr >> 8)
	mov	dptr,#_SUDPTRH
	mov	a,r7
	movx	@dptr,a
;	isr.c:40: SUDPTRL = LSB(DeviceDscr); // &0xFE
	mov	dptr,#_SUDPTRL
	mov	a,#_DeviceDscr
	movx	@dptr,a
;	isr.c:41: break;
	ljmp	00127$
;	isr.c:42: case 0x02: // CONFIGURATION
00104$:
;	isr.c:43: SUDPTRH = MSB(ConfigDscr);
	mov	r6,#_ConfigDscr
	mov	r7,#(_ConfigDscr >> 8)
	mov	dptr,#_SUDPTRH
	mov	a,r7
	movx	@dptr,a
;	isr.c:44: SUDPTRL = LSB(ConfigDscr); // &0xFE
	mov	dptr,#_SUDPTRL
	mov	a,#_ConfigDscr
	movx	@dptr,a
;	isr.c:45: break;
	ljmp	00127$
;	isr.c:46: case 0x03: // STRING
00105$:
;	isr.c:47: if (SETUPDAT[2] >= sizeof(StringDscr)/sizeof(BYTE*)) {
	mov	dptr,#(_SETUPDAT + 0x0002)
	movx	a,@dptr
	mov	r7,a
	cjne	r7,#0x03,00226$
00226$:
	jc	00107$
;	isr.c:48: EP0CS |= b0; // STALL
	mov	dptr,#_EP0CS
	movx	a,@dptr
	orl	acc,#0x01
	movx	@dptr,a
;	isr.c:49: break;
	ljmp	00127$
00107$:
;	isr.c:51: SUDPTRH = MSB(StringDscr[SETUPDAT[2]]);
	mov	dptr,#(_SETUPDAT + 0x0002)
	movx	a,@dptr
	mov	b,#0x03
	mul	ab
	add	a, #_StringDscr
	mov	dpl,a
	mov	a,#(_StringDscr >> 8)
	addc	a, b
	mov	dph,a
	clr	a
	movc	a,@a+dptr
	inc	dptr
	clr	a
	movc	a,@a+dptr
	mov	dptr,#_SUDPTRH
	movx	@dptr,a
;	isr.c:52: SUDPTRL = LSB(StringDscr[SETUPDAT[2]]); // &0xFE
	mov	dptr,#(_SETUPDAT + 0x0002)
	movx	a,@dptr
	mov	b,#0x03
	mul	ab
	add	a, #_StringDscr
	mov	dpl,a
	mov	a,#(_StringDscr >> 8)
	addc	a, b
	mov	dph,a
	clr	a
	movc	a,@a+dptr
	mov	dptr,#_SUDPTRL
	movx	@dptr,a
;	isr.c:53: break;
	ljmp	00127$
;	isr.c:54: case 0x22: // HID_REPORT
00108$:
;	isr.c:55: if (SETUPDAT[4] == 0) {
	mov	dptr,#(_SETUPDAT + 0x0004)
	movx	a,@dptr
	jnz	00113$
;	isr.c:56: hid_report(ReportDscr_Mouse, ReportDscrSize_Mouse);
	mov	a,#_ReportDscrSize_Mouse
	push	acc
	mov	a,#(_ReportDscrSize_Mouse >> 8)
	push	acc
	mov	a,#0x80
	push	acc
	mov	dptr,#_ReportDscr_Mouse
	mov	b,a
	lcall	_hid_report
	dec	sp
	dec	sp
	dec	sp
	sjmp	00127$
00113$:
;	isr.c:57: } else if (SETUPDAT[4] == 1) {
	mov	dptr,#(_SETUPDAT + 0x0004)
	movx	a,@dptr
	mov	r7,a
	cjne	r7,#0x01,00110$
;	isr.c:58: hid_report(ReportDscr_Keyboard, ReportDscrSize_Keyboard);
	mov	a,#_ReportDscrSize_Keyboard
	push	acc
	mov	a,#(_ReportDscrSize_Keyboard >> 8)
	push	acc
	mov	a,#0x80
	push	acc
	mov	dptr,#_ReportDscr_Keyboard
	mov	b,a
	lcall	_hid_report
	dec	sp
	dec	sp
	dec	sp
	sjmp	00127$
00110$:
;	isr.c:60: EP0CS |= b0; // STALL
	mov	dptr,#_EP0CS
	movx	a,@dptr
	orl	acc,#0x01
	movx	@dptr,a
;	isr.c:62: break;
;	isr.c:67: default:
	sjmp	00127$
00117$:
;	isr.c:68: EP0CS |= b0; // STALL
	mov	dptr,#_EP0CS
	movx	a,@dptr
	orl	acc,#0x01
	movx	@dptr,a
;	isr.c:69: }
	sjmp	00127$
00126$:
;	isr.c:71: else if (SETUPDAT[1] == 8) { // GET_CONFIGURATION
	mov	dptr,#(_SETUPDAT + 0x0001)
	movx	a,@dptr
	mov	r7,a
	cjne	r7,#0x08,00123$
;	isr.c:72: EP0BUF[0] = 1;
	mov	dptr,#_EP0BUF
	mov	a,#0x01
	movx	@dptr,a
;	isr.c:73: EP0BCH = 0;
	mov	dptr,#_EP0BCH
	clr	a
	movx	@dptr,a
;	isr.c:74: EP0BCL = 1;
	mov	dptr,#_EP0BCL
	inc	a
	movx	@dptr,a
	sjmp	00127$
00123$:
;	isr.c:76: else if (SETUPDAT[1] == 9) { // SET_CONFIGURATION
	mov	dptr,#(_SETUPDAT + 0x0001)
	movx	a,@dptr
	mov	r7,a
	cjne	r7,#0x09,00120$
;	isr.c:78: config = EP0BUF[2];
	mov	dptr,#(_EP0BUF + 0x0002)
	movx	a,@dptr
	mov	_isr_config_30000_18,a
	sjmp	00127$
00120$:
;	isr.c:80: else if (SETUPDAT[1] == 10) { // GET_INTERFACE
	mov	dptr,#(_SETUPDAT + 0x0001)
	movx	a,@dptr
00127$:
;	isr.c:84: EP0CS |= b7; // HSNAK (automatically handshake NAKs)
	mov	dptr,#_EP0CS
	movx	a,@dptr
	orl	acc,#0x80
	movx	@dptr,a
;	isr.c:85: USBIRQ = b0; // SUDAV (SETUP Data Available)
	mov	dptr,#_USBIRQ
	mov	a,#0x01
	movx	@dptr,a
00130$:
;	isr.c:87: }
	pop	psw
	pop	(0+0)
	pop	(0+1)
	pop	(0+2)
	pop	(0+3)
	pop	(0+4)
	pop	(0+5)
	pop	(0+6)
	pop	(0+7)
	pop	dph
	pop	dpl
	pop	b
	pop	acc
	pop	bits
	reti
	.area CSEG    (CODE)
	.area CONST   (CODE)
	.area CONST   (CODE)
_StringDscr:
	.byte _str0, (_str0 >> 8),#0x80
	.byte _str1, (_str1 >> 8),#0x80
	.byte _str2, (_str2 >> 8),#0x80
	.area CSEG    (CODE)
	.area XINIT   (CODE)
	.area CABS    (ABS,CODE)
